; Function Attrs: nounwind uwtable
define internal range(i64 0, -7) i64 @rsa_alt_get_bitlen(ptr noundef readonly captures(none) %0) #0 {
  %2 = getelementptr inbounds nuw i8, ptr %0, i64 8
  %3 = load ptr, ptr %2, align 8, !tbaa !3
  %4 = getelementptr inbounds nuw i8, ptr %3, i64 24
  %5 = load ptr, ptr %4, align 8, !tbaa !25
  %6 = load ptr, ptr %3, align 8, !tbaa !27
  %7 = tail call i64 %5(ptr noundef %6) #10
  %8 = shl i64 %7, 3
  ret i64 %8
}